target datalayout = "e-m:e-p270:32:32-p271:32:32-p272:64:64-i64:64-i128:128-f80:128-n8:16:32:64-S128"
target triple = "x86_64-unknown-linux-gnu"

%"class.QuantLib::CumulativeNormalDistribution" = type <{ double, double, %"class.QuantLib::NormalDistribution", [8 x i8] }>
%"class.QuantLib::NormalDistribution" = type { double, double, double, double, double }

; Function Attrs: inlinehint mustprogress nounwind uwtable
define linkonce_odr noundef double @_ZNK8QuantLib18NormalDistributionclEd(ptr noundef nonnull align 8 dereferenceable(40) %this, double noundef %x) #5 comdat align 2 {
entry:
  %this.addr = alloca ptr, align 8
  %x.addr = alloca double, align 8
  %deltax = alloca double, align 8
  %exponent = alloca double, align 8
  store ptr %this, ptr %this.addr, align 8, !tbaa !3
  store double %x, ptr %x.addr, align 8, !tbaa !7
  %this1 = load ptr, ptr %this.addr, align 8
  call void @llvm.lifetime.start.p0(i64 8, ptr %deltax) #19
  %0 = load double, ptr %x.addr, align 8, !tbaa !7
  %average_ = getelementptr inbounds nuw %"class.QuantLib::NormalDistribution", ptr %this1, i32 0, i32 0
  %1 = load double, ptr %average_, align 8, !tbaa !16
  %sub = fsub double %0, %1
  store double %sub, ptr %deltax, align 8, !tbaa !7
  call void @llvm.lifetime.start.p0(i64 8, ptr %exponent) #19
  %2 = load double, ptr %deltax, align 8, !tbaa !7
  %3 = load double, ptr %deltax, align 8, !tbaa !7
  %mul = fmul double %2, %3
  %fneg = fneg double %mul
  %denominator_ = getelementptr inbounds nuw %"class.QuantLib::NormalDistribution", ptr %this1, i32 0, i32 3
  %4 = load double, ptr %denominator_, align 8, !tbaa !17
  %div = fdiv double %fneg, %4
  store double %div, ptr %exponent, align 8, !tbaa !7
  %5 = load double, ptr %exponent, align 8, !tbaa !7
  %cmp = fcmp ole double %5, -6.900000e+02
  br i1 %cmp, label %cond.true, label %cond.false

cond.true:                                        ; preds = %entry
  br label %cond.end

cond.false:                                       ; preds = %entry
  %normalizationFactor_ = getelementptr inbounds nuw %"class.QuantLib::NormalDistribution", ptr %this1, i32 0, i32 2
  %6 = load double, ptr %normalizationFactor_, align 8, !tbaa !18
  %7 = load double, ptr %exponent, align 8, !tbaa !7
  %call = call double @exp(double noundef %7) #19, !tbaa !19
  %mul2 = fmul double %6, %call
  br label %cond.end

cond.end:                                         ; preds = %cond.false, %cond.true
  %cond = phi double [ 0.000000e+00, %cond.true ], [ %mul2, %cond.false ]
  call void @llvm.lifetime.end.p0(i64 8, ptr %exponent) #19
  call void @llvm.lifetime.end.p0(i64 8, ptr %deltax) #19
  ret double %cond
}

; Function Attrs: mustprogress nounwind uwtable
define linkonce_odr noundef double @_ZNSt14numeric_limitsIdE7epsilonEv() #3 comdat align 2 {
entry:
  ret double 0x3CB0000000000000
}

; Function Attrs: mustprogress nounwind uwtable
define linkonce_odr noundef double @_ZNSt14numeric_limitsIdE3maxEv() #3 comdat align 2 {
entry:
  ret double 0x7FEFFFFFFFFFFFFF
}

; Function Attrs: mustprogress uwtable
define noundef double @_ZNK8QuantLib28CumulativeNormalDistributionclEd(ptr noundef nonnull align 8 dereferenceable(57) %this, double noundef %z) #0 align 2 {
entry:
  %this.addr = alloca ptr, align 8
  %z.addr = alloca double, align 8
  %result = alloca double, align 8
  %sum = alloca double, align 8
  %zsqr = alloca double, align 8
  %i = alloca double, align 8
  %g = alloca double, align 8
  %x = alloca double, align 8
  %y = alloca double, align 8
  %a = alloca double, align 8
  %lasta = alloca double, align 8
  store ptr %this, ptr %this.addr, align 8, !tbaa !3
  store double %z, ptr %z.addr, align 8, !tbaa !7
  %this1 = load ptr, ptr %this.addr, align 8
  %0 = load double, ptr %z.addr, align 8, !tbaa !7
  %average_ = getelementptr inbounds nuw %"class.QuantLib::CumulativeNormalDistribution", ptr %this1, i32 0, i32 0
  %1 = load double, ptr %average_, align 8, !tbaa !9
  %sub = fsub double %0, %1
  %sigma_ = getelementptr inbounds nuw %"class.QuantLib::CumulativeNormalDistribution", ptr %this1, i32 0, i32 1
  %2 = load double, ptr %sigma_, align 8, !tbaa !13
  %div = fdiv double %sub, %2
  store double %div, ptr %z.addr, align 8, !tbaa !7
  call void @llvm.lifetime.start.p0(i64 8, ptr %result) #19
  %3 = getelementptr inbounds i8, ptr %this1, i64 56
  %4 = load double, ptr %z.addr, align 8, !tbaa !7
  %mul = fmul double %4, 0x3FE6A09E667F3BCD
  %call = call noundef double @_ZNK8QuantLib13ErrorFunctionclEd(ptr noundef nonnull align 1 dereferenceable(1) %3, double noundef %mul)
  %add = fadd double 1.000000e+00, %call
  %mul2 = fmul double 5.000000e-01, %add
  store double %mul2, ptr %result, align 8, !tbaa !7
  %5 = load double, ptr %result, align 8, !tbaa !7
  %cmp = fcmp ole double %5, 1.000000e-08
  br i1 %cmp, label %if.then, label %if.end

if.then:                                          ; preds = %entry
  call void @llvm.lifetime.start.p0(i64 8, ptr %sum) #19
  store double 1.000000e+00, ptr %sum, align 8, !tbaa !7
  call void @llvm.lifetime.start.p0(i64 8, ptr %zsqr) #19
  %6 = load double, ptr %z.addr, align 8, !tbaa !7
  %7 = load double, ptr %z.addr, align 8, !tbaa !7
  %mul3 = fmul double %6, %7
  store double %mul3, ptr %zsqr, align 8, !tbaa !7
  call void @llvm.lifetime.start.p0(i64 8, ptr %i) #19
  store double 1.000000e+00, ptr %i, align 8, !tbaa !7
  call void @llvm.lifetime.start.p0(i64 8, ptr %g) #19
  store double 1.000000e+00, ptr %g, align 8, !tbaa !7
  call void @llvm.lifetime.start.p0(i64 8, ptr %x) #19
  call void @llvm.lifetime.start.p0(i64 8, ptr %y) #19
  call void @llvm.lifetime.start.p0(i64 8, ptr %a) #19
  %call4 = call noundef double @_ZNSt14numeric_limitsIdE3maxEv() #19
  store double %call4, ptr %a, align 8, !tbaa !7
  call void @llvm.lifetime.start.p0(i64 8, ptr %lasta) #19
  br label %do.body

do.body:                                          ; preds = %land.end, %if.then
  %8 = load double, ptr %a, align 8, !tbaa !7
  store double %8, ptr %lasta, align 8, !tbaa !7
  %9 = load double, ptr %i, align 8, !tbaa !7
  %10 = call double @llvm.fmuladd.f64(double 4.000000e+00, double %9, double -3.000000e+00)
  %11 = load double, ptr %zsqr, align 8, !tbaa !7
  %div6 = fdiv double %10, %11
  store double %div6, ptr %x, align 8, !tbaa !7
  %12 = load double, ptr %x, align 8, !tbaa !7
  %13 = load double, ptr %i, align 8, !tbaa !7
  %14 = call double @llvm.fmuladd.f64(double 4.000000e+00, double %13, double -1.000000e+00)
  %15 = load double, ptr %zsqr, align 8, !tbaa !7
  %div8 = fdiv double %14, %15
  %mul9 = fmul double %12, %div8
  store double %mul9, ptr %y, align 8, !tbaa !7
  %16 = load double, ptr %g, align 8, !tbaa !7
  %17 = load double, ptr %x, align 8, !tbaa !7
  %18 = load double, ptr %y, align 8, !tbaa !7
  %sub10 = fsub double %17, %18
  %mul11 = fmul double %16, %sub10
  store double %mul11, ptr %a, align 8, !tbaa !7
  %19 = load double, ptr %a, align 8, !tbaa !7
  %20 = load double, ptr %sum, align 8, !tbaa !7
  %sub12 = fsub double %20, %19
  store double %sub12, ptr %sum, align 8, !tbaa !7
  %21 = load double, ptr %y, align 8, !tbaa !7
  %22 = load double, ptr %g, align 8, !tbaa !7
  %mul13 = fmul double %22, %21
  store double %mul13, ptr %g, align 8, !tbaa !7
  %23 = load double, ptr %i, align 8, !tbaa !7
  %inc = fadd double %23, 1.000000e+00
  store double %inc, ptr %i, align 8, !tbaa !7
  %24 = load double, ptr %a, align 8, !tbaa !7
  %25 = call double @llvm.fabs.f64(double %24)
  store double %25, ptr %a, align 8, !tbaa !7
  br label %do.cond

do.cond:                                          ; preds = %do.body
  %26 = load double, ptr %lasta, align 8, !tbaa !7
  %27 = load double, ptr %a, align 8, !tbaa !7
  %cmp14 = fcmp ogt double %26, %27
  br i1 %cmp14, label %land.rhs, label %land.end

land.rhs:                                         ; preds = %do.cond
  %28 = load double, ptr %a, align 8, !tbaa !7
  %29 = load double, ptr %sum, align 8, !tbaa !7
  %call15 = call noundef double @_ZNSt14numeric_limitsIdE7epsilonEv() #19
  %mul16 = fmul double %29, %call15
  %30 = call double @llvm.fabs.f64(double %mul16)
  %cmp17 = fcmp oge double %28, %30
  br label %land.end

land.end:                                         ; preds = %land.rhs, %do.cond
  %31 = phi i1 [ false, %do.cond ], [ %cmp17, %land.rhs ]
  br i1 %31, label %do.body, label %do.end, !llvm.loop !14

do.end:                                           ; preds = %land.end
  %gaussian_ = getelementptr inbounds nuw %"class.QuantLib::CumulativeNormalDistribution", ptr %this1, i32 0, i32 2
  %32 = load double, ptr %z.addr, align 8, !tbaa !7
  %call18 = call noundef double @_ZNK8QuantLib18NormalDistributionclEd(ptr noundef nonnull align 8 dereferenceable(40) %gaussian_, double noundef %32)
  %fneg = fneg double %call18
  %33 = load double, ptr %z.addr, align 8, !tbaa !7
  %div19 = fdiv double %fneg, %33
  %34 = load double, ptr %sum, align 8, !tbaa !7
  %mul20 = fmul double %div19, %34
  store double %mul20, ptr %result, align 8, !tbaa !7
  call void @llvm.lifetime.end.p0(i64 8, ptr %lasta) #19
  call void @llvm.lifetime.end.p0(i64 8, ptr %a) #19
  call void @llvm.lifetime.end.p0(i64 8, ptr %y) #19
  call void @llvm.lifetime.end.p0(i64 8, ptr %x) #19
  call void @llvm.lifetime.end.p0(i64 8, ptr %g) #19
  call void @llvm.lifetime.end.p0(i64 8, ptr %i) #19
  call void @llvm.lifetime.end.p0(i64 8, ptr %zsqr) #19
  call void @llvm.lifetime.end.p0(i64 8, ptr %sum) #19
  br label %if.end

if.end:                                           ; preds = %do.end, %entry
  %35 = load double, ptr %result, align 8, !tbaa !7
  call void @llvm.lifetime.end.p0(i64 8, ptr %result) #19
  ret double %35
}