; Function Attrs: mustprogress uwtable
define noundef double @_ZNK8QuantLib28CumulativeNormalDistributionclEd(ptr noundef nonnull align 8 dereferenceable(57) %this, double noundef %z) local_unnamed_addr #0 align 2 {
entry:
  %0 = load double, ptr %this, align 8, !tbaa !3
  %sub = fsub double %z, %0
  %sigma_ = getelementptr inbounds nuw i8, ptr %this, i64 8
  %1 = load double, ptr %sigma_, align 8, !tbaa !10
  %div = fdiv double %sub, %1
  %2 = getelementptr inbounds i8, ptr %this, i64 56
  %mul = fmul double %div, 0x3FE6A09E667F3BCD
  %call = tail call noundef double @_ZNK8QuantLib13ErrorFunctionclEd(ptr noundef nonnull align 1 dereferenceable(1) %2, double noundef %mul)
  %add = fadd double %call, 1.000000e+00
  %mul2 = fmul double %add, 5.000000e-01
  %cmp = fcmp ugt double %mul2, 1.000000e-08
  br i1 %cmp, label %if.end, label %if.then

if.then:                                          ; preds = %entry
  %mul3 = fmul double %div, %div
  br label %do.body

do.body:                                          ; preds = %land.rhs, %if.then
  %i.0 = phi double [ 1.000000e+00, %if.then ], [ %inc, %land.rhs ]
  %g.0 = phi double [ 1.000000e+00, %if.then ], [ %mul13, %land.rhs ]
  %sum.0 = phi double [ 1.000000e+00, %if.then ], [ %sub12, %land.rhs ]
  %a.0 = phi double [ 0x7FEFFFFFFFFFFFFF, %if.then ], [ %5, %land.rhs ]
  %3 = tail call double @llvm.fmuladd.f64(double %i.0, double 4.000000e+00, double -3.000000e+00)
  %div6 = fdiv double %3, %mul3
  %4 = tail call double @llvm.fmuladd.f64(double %i.0, double 4.000000e+00, double -1.000000e+00)
  %div8 = fdiv double %4, %mul3
  %mul9 = fmul double %div6, %div8
  %sub10 = fsub double %div6, %mul9
  %mul11 = fmul double %g.0, %sub10
  %sub12 = fsub double %sum.0, %mul11
  %5 = tail call double @llvm.fabs.f64(double %mul11)
  %cmp14 = fcmp ogt double %a.0, %5
  br i1 %cmp14, label %land.rhs, label %do.end

land.rhs:                                         ; preds = %do.body
  %inc = fadd double %i.0, 1.000000e+00
  %mul13 = fmul double %g.0, %mul9
  %mul16 = fmul double %sub12, 0x3CB0000000000000
  %6 = tail call double @llvm.fabs.f64(double %mul16)
  %cmp17 = fcmp ult double %5, %6
  br i1 %cmp17, label %do.end, label %do.body, !llvm.loop !11

do.end:                                           ; preds = %do.body, %land.rhs
  %gaussian_ = getelementptr inbounds nuw i8, ptr %this, i64 16
  %7 = load double, ptr %gaussian_, align 8, !tbaa !13
  %sub.i = fsub double %div, %7
  %8 = fneg double %sub.i
  %fneg.i = fmul double %sub.i, %8
  %denominator_.i = getelementptr inbounds nuw i8, ptr %this, i64 40
  %9 = load double, ptr %denominator_.i, align 8, !tbaa !14
  %div.i = fdiv double %fneg.i, %9
  %cmp.i = fcmp ugt double %div.i, -6.900000e+02
  br i1 %cmp.i, label %cond.false.i, label %_ZNK8QuantLib18NormalDistributionclEd.exit

cond.false.i:                                     ; preds = %do.end
  %normalizationFactor_.i = getelementptr inbounds nuw i8, ptr %this, i64 32
  %10 = load double, ptr %normalizationFactor_.i, align 8, !tbaa !15
  %call.i = tail call double @exp(double noundef %div.i) #26, !tbaa !16
  %mul2.i = fmul double %10, %call.i
  br label %_ZNK8QuantLib18NormalDistributionclEd.exit

_ZNK8QuantLib18NormalDistributionclEd.exit:       ; preds = %do.end, %cond.false.i
  %cond.i = phi double [ %mul2.i, %cond.false.i ], [ 0.000000e+00, %do.end ]
  %fneg = fneg double %cond.i
  %div19 = fdiv double %fneg, %div
  %mul20 = fmul double %sub12, %div19
  br label %if.end

if.end:                                           ; preds = %_ZNK8QuantLib18NormalDistributionclEd.exit, %entry
  %result.0 = phi double [ %mul20, %_ZNK8QuantLib18NormalDistributionclEd.exit ], [ %mul2, %entry ]
  ret double %result.0
}